###############################################################################
#                                                                             #
# IAR C/C++ Compiler V6.10.1.50424 for Atmel AVR        31/Aug/2022  16:54:12 #
# Copyright 1996-2011 IAR Systems AB.                                         #
#                                                                             #
#    Source file  =  D:\LUCID ½Å·Ú¼º\CN_BOARD\source\i2c.c                    #
#    Command line =  "D:\LUCID ½Å·Ú¼º\CN_BOARD\source\i2c.c" --cpu=m128 -ms   #
#                    -o "D:\LUCID ½Å·Ú¼º\CN_BOARD\Release\Obj\" -D NDEBUG     #
#                    -lCN "D:\LUCID ½Å·Ú¼º\CN_BOARD\Release\List\" -lb        #
#                    "D:\LUCID ½Å·Ú¼º\CN_BOARD\Release\List\" -y              #
#                    --initializers_in_flash -DENABLE_BIT_DEFINITIONS -e      #
#                    --eeprom_size 4096 --clib -Ohz                           #
#    List file    =  D:\LUCID ½Å·Ú¼º\CN_BOARD\Release\List\i2c.lst            #
#    Object file  =  D:\LUCID ½Å·Ú¼º\CN_BOARD\Release\Obj\i2c.r90             #
#                                                                             #
#                                                                             #
###############################################################################

D:\LUCID ½Å·Ú¼º\CN_BOARD\source\i2c.c
      1          
      2          #include "allinclude.h"
      3          

   \                                 In  segment NEAR_Z, align 1, keep-with-next
   \   00000000                      REQUIRE `?<Segment init: NEAR_Z>`
      4          unsigned short  ext_usI2cData_2;
   \                     ext_usI2cData_2:
   \   00000000                      DS8 2

   \                                 In  segment NEAR_I, align 1, keep-with-next
   \   00000000                      REQUIRE `?<Segment init: NEAR_I>`
      5          unsigned char  ext_ucI2cDelay = 5;
   \                     ext_ucI2cDelay:
   \   00000000                      DS8 1
   \   00000001                      REQUIRE `?<Initializer for ext_ucI2cDelay>`

   \                                 In  segment NEAR_I, align 1, keep-with-next
   \   00000000                      REQUIRE `?<Segment init: NEAR_I>`
      6          unsigned char eep_usPvcomDly = 10;
   \                     eep_usPvcomDly:
   \   00000000                      DS8 1
   \   00000001                      REQUIRE `?<Initializer for eep_usPvcomDly>`
      7          
      8          extern unsigned char ext_ucRxbuf[];
      9          extern unsigned char ext_ucTxbuf[];
     10          extern unsigned char ext_ucRxStatus;
     11          
     12          
     13          

   \                                 In  segment NEAR_Z, align 1, keep-with-next
   \   00000000                      REQUIRE `?<Segment init: NEAR_Z>`
     14          SBYTE	Tx_Lenth_Update;
   \                     Tx_Lenth_Update:
   \   00000000                      DS8 2
     15           

   \                                 In  segment CODE, align 2, keep-with-next
     16          unsigned char  I2C_Write_1Byte( BYTE ucSlaveAddr, BYTE wSubAddress, BYTE ucData)
   \                     I2C_Write_1Byte:
     17          {
   \   00000000   ........           CALL    ?PROLOGUE3_L09
   \   00000004   2F90               MOV     R25, R16
   \   00000006   2F81               MOV     R24, R17
   \   00000008   2FA2               MOV     R26, R18
     18          	gpi2c_start_condition(&gpi2c_module);	
   \   0000000A   ....               RCALL   ?Subroutine12
     19          	if(gpi2c_write(&gpi2c_module,ucSlaveAddr)){
   \                     ??CrossCallReturnLabel_22:
   \   0000000C   2F29               MOV     R18, R25
   \   0000000E   ....               RCALL   ??Subroutine15_0
   \                     ??CrossCallReturnLabel_29:
   \   00000010   F011               BREQ    ??I2C_Write_1Byte_0
     20                  gpi2c_stop_condition(&gpi2c_module);
   \                     ??I2C_Write_1Byte_1:
   \   00000012   ....               RCALL   ?Subroutine1
     21                  return 0xaa;
     22              }
   \                     ??CrossCallReturnLabel_0:
   \   00000014   C007               RJMP    ??CrossCallReturnLabel_7
     23          	if(gpi2c_write(&gpi2c_module,wSubAddress)){
   \                     ??I2C_Write_1Byte_0:
   \   00000016   2F28               MOV     R18, R24
   \   00000018   ....               RCALL   ??Subroutine15_0
   \                     ??CrossCallReturnLabel_30:
   \   0000001A   F7D9               BRNE    ??I2C_Write_1Byte_1
     24                  gpi2c_stop_condition(&gpi2c_module);
     25                  return 0xaa;
     26              }
     27          	if(gpi2c_write(&gpi2c_module,ucData)){
   \   0000001C   2F2A               MOV     R18, R26
   \   0000001E   ....               RCALL   ??Subroutine15_0
   \                     ??CrossCallReturnLabel_31:
   \   00000020   F7C1               BRNE    ??I2C_Write_1Byte_1
     28                  gpi2c_stop_condition(&gpi2c_module);
     29                  return 0xaa;
     30              }
     31          	gpi2c_stop_condition(&gpi2c_module);
   \   00000022   ....               RCALL   ?Subroutine4
   \                     ??CrossCallReturnLabel_7:
   \   00000024   E0E3               LDI     R30, 3
   \   00000026   ........           JMP     ?EPILOGUE_B3_L09
     32                 
     33              return 0;   
     34          }

   \                                 In  segment CODE, align 2, keep-with-next
   \                     ?Subroutine4:
   \   00000000   ....               RCALL   ?Subroutine10
   \                     ??CrossCallReturnLabel_17:
   \   00000002   E000               LDI     R16, 0
   \   00000004   9508               RET

   \                                 In  segment CODE, align 2, keep-with-next
   \                     ?Subroutine12:
   \   00000000   ....               RCALL   ?Subroutine14
   \                     ??CrossCallReturnLabel_46:
   \   00000002   ........           JMP     gpi2c_start_condition

   \                                 In  segment CODE, align 2, keep-with-next
   \                     ?Subroutine1:
   \   00000000   ....               RCALL   ?Subroutine10
   \                     ??CrossCallReturnLabel_16:
   \   00000002   EA0A               LDI     R16, 170
   \   00000004   9508               RET

   \                                 In  segment CODE, align 2, keep-with-next
   \                     ??Subroutine15_0:
   \   00000000   ....               RCALL   ?Subroutine13
   \                     ??CrossCallReturnLabel_43:
   \   00000002   2B01               OR      R16, R17
   \   00000004   9508               RET

   \                                 In  segment CODE, align 2, keep-with-next
   \                     ?Subroutine10:
   \   00000000   ....               RCALL   ?Subroutine14
   \                     ??CrossCallReturnLabel_44:
   \   00000002   ........           JMP     gpi2c_stop_condition

   \                                 In  segment CODE, align 2, keep-with-next
   \                     ?Subroutine14:
   \   00000000   ....               LDI     R16, LOW(gpi2c_module)
   \   00000002   ....               LDI     R17, (gpi2c_module) >> 8
   \   00000004   9508               RET

   \                                 In  segment CODE, align 2, keep-with-next
   \                     ?Subroutine13:
   \   00000000   ....               RCALL   ?Subroutine14
   \                     ??CrossCallReturnLabel_47:
   \   00000002   ........           JMP     gpi2c_write
     35          
     36          /**************************************************************************************
     37          //Function Name : nv_write
     38          **************************************************************************************/

   \                                 In  segment CODE, align 2, keep-with-next
     39          unsigned char I2C_Write_Several( unsigned char ucSlaveAddr, unsigned char wSubAddress, unsigned short usLen )
   \                     I2C_Write_Several:
     40          {
   \   00000000   ........           CALL    ?PROLOGUE4_L09
   \   00000004   2FB0               MOV     R27, R16
   \   00000006   2FA1               MOV     R26, R17
   \   00000008   01C9               MOVW    R25:R24, R19:R18
     41              SBYTE usCnt;
     42              unsigned char ucAckErr = 0;
     43          
     44              gpi2c_start_condition(&gpi2c_module);	
   \   0000000A   ....               RCALL   ?Subroutine0
   \                     ??CrossCallReturnLabel_27:
   \   0000000C   F011               BREQ    ??I2C_Write_Several_0
     45          	if(gpi2c_write(&gpi2c_module,ucSlaveAddr)){
     46                  gpi2c_stop_condition(&gpi2c_module);
   \                     ??I2C_Write_Several_1:
   \   0000000E   ....               RCALL   ?Subroutine1
     47                  return 0xaa;
     48              }
   \                     ??CrossCallReturnLabel_1:
   \   00000010   C014               RJMP    ??CrossCallReturnLabel_8
     49          	if(gpi2c_write(&gpi2c_module,wSubAddress)){
   \                     ??I2C_Write_Several_0:
   \   00000012   2F2A               MOV     R18, R26
   \   00000014   ....               RCALL   ??Subroutine15_0
   \                     ??CrossCallReturnLabel_32:
   \   00000016   F7D9               BRNE    ??I2C_Write_Several_1
     50                  gpi2c_stop_condition(&gpi2c_module);
     51                  return 0xaa;
     52              }
     53              for(usCnt = 0; usCnt < usLen ; usCnt++){    
   \   00000018   E0A0               LDI     R26, 0
   \   0000001A   E0B0               LDI     R27, 0
   \   0000001C   C00A               RJMP    ??I2C_Write_Several_2
     54                  if(gpi2c_write(&gpi2c_module,ext_ucRxbuf[ ext_usI2cData_2 + usCnt])){
   \                     ??I2C_Write_Several_3:
   \   0000001E   ....               RCALL   ?Subroutine8
     55                      gpi2c_stop_condition(&gpi2c_module);
     56                      return 0xaa;
     57                  }
     58              }    
   \                     ??CrossCallReturnLabel_9:
   \   00000020   0F0A               ADD     R16, R26
   \   00000022   1F1B               ADC     R17, R27
   \   00000024   01F8               MOVW    R31:R30, R17:R16
   \   00000026   ....               SUBI    R30, LOW((-(ext_ucRxbuf) & 0xFFFF))
   \   00000028   ....               SBCI    R31, (-(ext_ucRxbuf) & 0xFFFF) >> 8
   \   0000002A   8120               LD      R18, Z
   \   0000002C   ....               RCALL   ??Subroutine15_0
   \                     ??CrossCallReturnLabel_33:
   \   0000002E   F779               BRNE    ??I2C_Write_Several_1
   \   00000030   9611               ADIW    R27:R26, 1
   \                     ??I2C_Write_Several_2:
   \   00000032   17A8               CP      R26, R24
   \   00000034   07B9               CPC     R27, R25
   \   00000036   F398               BRCS    ??I2C_Write_Several_3
     59          	gpi2c_stop_condition(&gpi2c_module);  
   \   00000038   ....               RCALL   ?Subroutine4
     60              
     61              return ucAckErr;
   \                     ??CrossCallReturnLabel_8:
   \   0000003A   E0E4               LDI     R30, 4
   \   0000003C   ........           JMP     ?EPILOGUE_B4_L09
     62          }

   \                                 In  segment CODE, align 2, keep-with-next
   \                     ?Subroutine0:
   \   00000000   ....               RCALL   ?Subroutine12
   \                     ??CrossCallReturnLabel_21:
   \   00000002   2F2B               MOV     R18, R27
   \   00000004                      REQUIRE ??Subroutine15_0
   \   00000004                      ;               // Fall through to label ??Subroutine15_0

   \                                 In  segment CODE, align 2, keep-with-next
   \                     ?Subroutine8:
   \   00000000   ....               LDI     R30, LOW(ext_usI2cData_2)
   \   00000002   ....               LDI     R31, (ext_usI2cData_2) >> 8
   \   00000004   8100               LD      R16, Z
   \   00000006   8111               LDD     R17, Z+1
   \   00000008   9508               RET
     63          
     64          /**************************************************************************************
     65          //Function Name : i2c_read
     66          **************************************************************************************/

   \                                 In  segment CODE, align 2, keep-with-next
     67          unsigned char i2c_read( unsigned char ucSlaveAddr, unsigned char wSubAddress, unsigned short usLen, unsigned char ODC_4096_flag )
   \                     i2c_read:
     68          {
   \   00000000   ........           CALL    ?PROLOGUE5_L09
   \   00000004                      REQUIRE ?Register_R4_is_cg_reg
   \   00000004   9721               SBIW    R29:R28, 1
   \   00000006   01C8               MOVW    R25:R24, R17:R16
   \   00000008   01D9               MOVW    R27:R26, R19:R18
   \   0000000A   2E44               MOV     R4, R20
     69              BYTE  uvVal = 0;
   \   0000000C   E000               LDI     R16, 0
   \   0000000E   8308               ST      Y, R16
     70              SBYTE usCnt;
     71              unsigned char ucAckErr = 0;
     72              
     73          	gpi2c_start_condition(&gpi2c_module);	
   \   00000010   ....               RCALL   ?Subroutine12
     74          	if(gpi2c_write(&gpi2c_module,ucSlaveAddr)){   // slave address
   \                     ??CrossCallReturnLabel_23:
   \   00000012   2F28               MOV     R18, R24
   \   00000014   ....               RCALL   ??Subroutine15_0
   \                     ??CrossCallReturnLabel_34:
   \   00000016   F011               BREQ    ??i2c_read_0
     75                  gpi2c_stop_condition(&gpi2c_module);
   \                     ??i2c_read_1:
   \   00000018   ....               RCALL   ?Subroutine1
     76                  return 0xaa;
     77              }
   \                     ??CrossCallReturnLabel_2:
   \   0000001A   C01F               RJMP    ??i2c_read_2
     78              if(ODC_4096_flag){
   \                     ??i2c_read_0:
   \   0000001C   2044               TST     R4
   \   0000001E   F019               BREQ    ??i2c_read_3
     79                  if(gpi2c_write(&gpi2c_module,0x00)){      // address msb 0À¸·Î ¹ÚÀ½ 
   \   00000020   E020               LDI     R18, 0
   \   00000022   ....               RCALL   ??Subroutine15_0
     80                      gpi2c_stop_condition(&gpi2c_module);
     81                      return 0xaa;
     82                  }
     83              }
   \                     ??CrossCallReturnLabel_35:
   \   00000024   F7C9               BRNE    ??i2c_read_1
     84          	if(gpi2c_write(&gpi2c_module,wSubAddress)){   //address lsb
   \                     ??i2c_read_3:
   \   00000026   2F29               MOV     R18, R25
   \   00000028   ....               RCALL   ??Subroutine15_0
   \                     ??CrossCallReturnLabel_36:
   \   0000002A   F7B1               BRNE    ??i2c_read_1
     85                  gpi2c_stop_condition(&gpi2c_module);
     86                  return 0xaa;
     87              }
     88          
     89          	gpi2c_start_condition(&gpi2c_module);	
   \   0000002C   ....               RCALL   ?Subroutine12
     90          	gpi2c_write(&gpi2c_module,(ucSlaveAddr|0x01));
   \                     ??CrossCallReturnLabel_24:
   \   0000002E   6081               ORI     R24, 0x01
   \   00000030   2F28               MOV     R18, R24
   \   00000032   ....               RCALL   ?Subroutine13
     91          	for(usCnt = 0; usCnt < usLen-1 ; usCnt++){
   \                     ??CrossCallReturnLabel_41:
   \   00000034   E080               LDI     R24, 0
   \   00000036   E090               LDI     R25, 0
   \   00000038   C003               RJMP    ??i2c_read_4
     92                  uvVal =  gpi2c_read(&gpi2c_module,&uvVal,1); //1BYTE READ ACK
   \                     ??i2c_read_5:
   \   0000003A   E041               LDI     R20, 1
   \   0000003C   ....               RCALL   ?Subroutine11
     93          //        send_comm(START_ADDR+usCnt, 0, uvVal);
     94              }
   \                     ??CrossCallReturnLabel_19:
   \   0000003E   9601               ADIW    R25:R24, 1
   \                     ??i2c_read_4:
   \   00000040   01FD               MOVW    R31:R30, R27:R26
   \   00000042   9731               SBIW    R31:R30, 1
   \   00000044   178E               CP      R24, R30
   \   00000046   079F               CPC     R25, R31
   \   00000048   F3C0               BRCS    ??i2c_read_5
     95              uvVal =  gpi2c_read(&gpi2c_module,&uvVal,0); //1BYTE READ NACK
   \   0000004A   E040               LDI     R20, 0
   \   0000004C   ....               RCALL   ?Subroutine11
     96          //    send_comm(START_ADDR+ (usLen-1), 0, uvVal);
     97              
     98          	gpi2c_stop_condition(&gpi2c_module);   
   \                     ??CrossCallReturnLabel_18:
   \   0000004E   ....               RCALL   ?Subroutine10
     99           
    100              Tx_Lenth_Update = usLen;
   \                     ??CrossCallReturnLabel_13:
   \   00000050   ....               LDI     R30, LOW(Tx_Lenth_Update)
   \   00000052   ....               LDI     R31, (Tx_Lenth_Update) >> 8
   \   00000054   83A0               ST      Z, R26
   \   00000056   83B1               STD     Z+1, R27
    101              
    102              return ucAckErr;
   \   00000058   E000               LDI     R16, 0
   \                     ??i2c_read_2:
   \   0000005A   9621               ADIW    R29:R28, 1
   \   0000005C   E0E5               LDI     R30, 5
   \   0000005E   ........           JMP     ?EPILOGUE_B5_L09
    103          }

   \                                 In  segment CODE, align 2, keep-with-next
   \                     ?Subroutine11:
   \   00000000   019E               MOVW    R19:R18, R29:R28
   \   00000002   ....               RCALL   ?Subroutine14
   \                     ??CrossCallReturnLabel_45:
   \   00000004   ........           CALL    gpi2c_read
   \   00000008   8308               ST      Y, R16
   \   0000000A   9508               RET
    104          
    105          
    106          /**************************************************************************************
    107          //Function Name : nv_write
    108          **************************************************************************************/

   \                                 In  segment CODE, align 2, keep-with-next
    109          unsigned char I2C_Write_Change_Add( unsigned char ucSlaveAddr, unsigned char wSubAddress, unsigned short usLen, unsigned char ucByteNum )
   \                     I2C_Write_Change_Add:
    110          {
   \   00000000   ........           CALL    ?PROLOGUE8_L09
   \   00000004                      REQUIRE ?Register_R4_is_cg_reg
   \   00000004                      REQUIRE ?Register_R5_is_cg_reg
   \   00000004                      REQUIRE ?Register_R6_is_cg_reg
   \   00000004                      REQUIRE ?Register_R7_is_cg_reg
   \   00000004   2FB0               MOV     R27, R16
   \   00000006   2FA1               MOV     R26, R17
   \   00000008   01C9               MOVW    R25:R24, R19:R18
   \   0000000A   2E64               MOV     R6, R20
    111              SBYTE usCnt;
    112              unsigned char ucAckErr = 0;
    113              BYTE i;
    114              
    115              for(usCnt = 0; usCnt < (usLen/ucByteNum) ; usCnt++){
   \   0000000C   2444               CLR     R4
   \   0000000E   2455               CLR     R5
   \   00000010   C019               RJMP    ??I2C_Write_Change_Add_0
    116                  
    117                  gpi2c_start_condition(&gpi2c_module);	
    118                  if(gpi2c_write(&gpi2c_module,ucSlaveAddr)){
    119                      gpi2c_stop_condition(&gpi2c_module);
    120                      return 0xaa;
    121                  }
    122                  if(gpi2c_write(&gpi2c_module,wSubAddress)){
    123                      gpi2c_stop_condition(&gpi2c_module);
    124                      return 0xaa;
    125                  }
    126                  for(i = 0; i < ucByteNum ; i++){    
    127                      if(gpi2c_write(&gpi2c_module,ext_ucRxbuf[ ext_usI2cData_2])){
   \                     ??I2C_Write_Change_Add_1:
   \   00000012   ....               LDI     R30, LOW(ext_usI2cData_2)
   \   00000014   ....               LDI     R31, (ext_usI2cData_2) >> 8
   \   00000016   8100               LD      R16, Z
   \   00000018   81F1               LDD     R31, Z+1
   \   0000001A   2FE0               MOV     R30, R16
   \   0000001C   ....               SUBI    R30, LOW((-(ext_ucRxbuf) & 0xFFFF))
   \   0000001E   ....               SBCI    R31, (-(ext_ucRxbuf) & 0xFFFF) >> 8
   \   00000020   8120               LD      R18, Z
   \   00000022   ....               RCALL   ??Subroutine15_0
   \                     ??CrossCallReturnLabel_37:
   \   00000024   F4C9               BRNE    ??I2C_Write_Change_Add_2
    128                          gpi2c_stop_condition(&gpi2c_module);
    129                          return 0xaa;
    130                      }
    131                      ext_usI2cData_2++;
   \   00000026   ....               RCALL   ?Subroutine8
    132                  }    
   \                     ??CrossCallReturnLabel_10:
   \   00000028   5F0F               SUBI    R16, 255
   \   0000002A   4F1F               SBCI    R17, 255
   \   0000002C   8300               ST      Z, R16
   \   0000002E   8311               STD     Z+1, R17
   \   00000030   9473               INC     R7
   \                     ??I2C_Write_Change_Add_3:
   \   00000032   1476               CP      R7, R6
   \   00000034   F370               BRCS    ??I2C_Write_Change_Add_1
    133                  gpi2c_stop_condition(&gpi2c_module);  
   \   00000036   ....               RCALL   ?Subroutine10
    134                  wSubAddress++;
   \                     ??CrossCallReturnLabel_14:
   \   00000038   95A3               INC     R26
    135                  delay_ms(5);
   \   0000003A   ....               RCALL   ?Subroutine9
   \                     ??CrossCallReturnLabel_12:
   \   0000003C   E001               LDI     R16, 1
   \   0000003E   0E40               ADD     R4, R16
   \   00000040   E000               LDI     R16, 0
   \   00000042   1E50               ADC     R5, R16
   \                     ??I2C_Write_Change_Add_0:
   \   00000044   2D46               MOV     R20, R6
   \   00000046   E050               LDI     R21, 0
   \   00000048   018C               MOVW    R17:R16, R25:R24
   \   0000004A   ........           CALL    ?US_DIVMOD_L02
   \   0000004E   1640               CP      R4, R16
   \   00000050   0651               CPC     R5, R17
   \   00000052   F448               BRCC    ??I2C_Write_Change_Add_4
   \   00000054   ....               RCALL   ?Subroutine0
   \                     ??CrossCallReturnLabel_28:
   \   00000056   F011               BREQ    ??I2C_Write_Change_Add_5
   \                     ??I2C_Write_Change_Add_2:
   \   00000058   ....               RCALL   ?Subroutine1
   \                     ??CrossCallReturnLabel_3:
   \   0000005A   C006               RJMP    ??I2C_Write_Change_Add_6
   \                     ??I2C_Write_Change_Add_5:
   \   0000005C   2F2A               MOV     R18, R26
   \   0000005E   ....               RCALL   ??Subroutine15_0
   \                     ??CrossCallReturnLabel_38:
   \   00000060   F7D9               BRNE    ??I2C_Write_Change_Add_2
   \   00000062   2477               CLR     R7
   \   00000064   CFE6               RJMP    ??I2C_Write_Change_Add_3
    136              }
    137              
    138              return ucAckErr;
   \                     ??I2C_Write_Change_Add_4:
   \   00000066   E000               LDI     R16, 0
   \                     ??I2C_Write_Change_Add_6:
   \   00000068   E0E8               LDI     R30, 8
   \   0000006A   ........           JMP     ?EPILOGUE_B8_L09
    139          }

   \                                 In  segment CODE, align 2, keep-with-next
   \                     ?Subroutine9:
   \   00000000   E005               LDI     R16, 5
   \   00000002   E010               LDI     R17, 0
   \   00000004   ........           JMP     delay_ms
    140          

   \                                 In  segment CODE, align 2, keep-with-next
    141          unsigned char I2C_Read_Change_Add( unsigned char ucSlaveAddr, unsigned char wSubAddress, unsigned short usLen, unsigned char ucByteNum )
   \                     I2C_Read_Change_Add:
    142          {
   \   00000000   ........           CALL    ?PROLOGUE10_L09
   \   00000004                      REQUIRE ?Register_R4_is_cg_reg
   \   00000004                      REQUIRE ?Register_R5_is_cg_reg
   \   00000004                      REQUIRE ?Register_R6_is_cg_reg
   \   00000004                      REQUIRE ?Register_R7_is_cg_reg
   \   00000004                      REQUIRE ?Register_R8_is_cg_reg
   \   00000004                      REQUIRE ?Register_R9_is_cg_reg
   \   00000004   9721               SBIW    R29:R28, 1
   \   00000006   2E50               MOV     R5, R16
   \   00000008   2E41               MOV     R4, R17
   \   0000000A   0139               MOVW    R7:R6, R19:R18
   \   0000000C   2F84               MOV     R24, R20
    143              SBYTE usCnt;
    144              unsigned char ucAckErr = 0;
    145              BYTE i, sendaddcnt = 0;
   \   0000000E   E090               LDI     R25, 0
    146              BYTE  uvVal = 0;
   \   00000010   8398               ST      Y, R25
    147          
    148              for(usCnt = 0; usCnt < (usLen/ucByteNum) ; usCnt++){
   \   00000012   E0A0               LDI     R26, 0
   \   00000014   E0B0               LDI     R27, 0
   \   00000016   C010               RJMP    ??I2C_Read_Change_Add_0
    149                  
    150                      gpi2c_start_condition(&gpi2c_module);	
    151                      if(gpi2c_write(&gpi2c_module,ucSlaveAddr)){
    152                          gpi2c_stop_condition(&gpi2c_module);
    153                          return 0xaa;
    154                      }
    155                      if(gpi2c_write(&gpi2c_module,wSubAddress)){
    156                          gpi2c_stop_condition(&gpi2c_module);
    157                          return 0xaa;
    158                      }
    159                      gpi2c_start_condition(&gpi2c_module);	
    160                      gpi2c_write(&gpi2c_module,(ucSlaveAddr|0x01));
    161                      
    162                      for(i = 0; i < (ucByteNum-1) ; i++){
    163                          uvVal =  gpi2c_read(&gpi2c_module,&uvVal,1); //1BYTE READ ACK
   \                     ??I2C_Read_Change_Add_1:
   \   00000018   E041               LDI     R20, 1
   \   0000001A   ....               RCALL   ?Subroutine2
    164          //                send_comm(START_ADDR + sendaddcnt, 0, uvVal);
    165                          
    166                          sendaddcnt++;
    167                      }
   \                     ??CrossCallReturnLabel_5:
   \   0000001C   9483               INC     R8
   \                     ??I2C_Read_Change_Add_2:
   \   0000001E   2499               CLR     R9
   \   00000020   2FE8               MOV     R30, R24
   \   00000022   E0F0               LDI     R31, 0
   \   00000024   9731               SBIW    R31:R30, 1
   \   00000026   168E               CP      R8, R30
   \   00000028   069F               CPC     R9, R31
   \   0000002A   F3B4               BRLT    ??I2C_Read_Change_Add_1
    168                      uvVal =  gpi2c_read(&gpi2c_module,&uvVal,0); //1BYTE READ NACK
   \   0000002C   E040               LDI     R20, 0
   \   0000002E   ....               RCALL   ?Subroutine2
    169          //            send_comm(START_ADDR+ sendaddcnt, 0, uvVal);
    170                      
    171                      sendaddcnt++;
    172                      
    173                      gpi2c_stop_condition(&gpi2c_module);  
   \                     ??CrossCallReturnLabel_6:
   \   00000030   ....               RCALL   ?Subroutine10
    174                      wSubAddress++;
   \                     ??CrossCallReturnLabel_15:
   \   00000032   9443               INC     R4
    175                      delay_ms(5);
   \   00000034   ....               RCALL   ?Subroutine9
   \                     ??CrossCallReturnLabel_11:
   \   00000036   9611               ADIW    R27:R26, 1
   \                     ??I2C_Read_Change_Add_0:
   \   00000038   2F48               MOV     R20, R24
   \   0000003A   E050               LDI     R21, 0
   \   0000003C   0183               MOVW    R17:R16, R7:R6
   \   0000003E   ........           CALL    ?US_DIVMOD_L02
   \   00000042   17A0               CP      R26, R16
   \   00000044   07B1               CPC     R27, R17
   \   00000046   F478               BRCC    ??I2C_Read_Change_Add_3
   \   00000048   ....               RCALL   ?Subroutine12
   \                     ??CrossCallReturnLabel_25:
   \   0000004A   2D25               MOV     R18, R5
   \   0000004C   ....               RCALL   ??Subroutine15_0
   \                     ??CrossCallReturnLabel_39:
   \   0000004E   F011               BREQ    ??I2C_Read_Change_Add_4
   \                     ??I2C_Read_Change_Add_5:
   \   00000050   ....               RCALL   ?Subroutine1
   \                     ??CrossCallReturnLabel_4:
   \   00000052   C00F               RJMP    ??I2C_Read_Change_Add_6
   \                     ??I2C_Read_Change_Add_4:
   \   00000054   2D24               MOV     R18, R4
   \   00000056   ....               RCALL   ??Subroutine15_0
   \                     ??CrossCallReturnLabel_40:
   \   00000058   F7D9               BRNE    ??I2C_Read_Change_Add_5
   \   0000005A   ....               RCALL   ?Subroutine12
   \                     ??CrossCallReturnLabel_26:
   \   0000005C   2D25               MOV     R18, R5
   \   0000005E   6021               ORI     R18, 0x01
   \   00000060   ....               RCALL   ?Subroutine13
   \                     ??CrossCallReturnLabel_42:
   \   00000062   2488               CLR     R8
   \   00000064   CFDC               RJMP    ??I2C_Read_Change_Add_2
    176              }
    177              Tx_Lenth_Update = sendaddcnt;
   \                     ??I2C_Read_Change_Add_3:
   \   00000066   E010               LDI     R17, 0
   \   00000068   ....               LDI     R30, LOW(Tx_Lenth_Update)
   \   0000006A   ....               LDI     R31, (Tx_Lenth_Update) >> 8
   \   0000006C   8390               ST      Z, R25
   \   0000006E   8311               STD     Z+1, R17
    178              
    179              return ucAckErr;
   \   00000070   E000               LDI     R16, 0
   \                     ??I2C_Read_Change_Add_6:
   \   00000072   9621               ADIW    R29:R28, 1
   \   00000074   E0EA               LDI     R30, 10
   \   00000076   ........           JMP     ?EPILOGUE_B10_L09
    180          }

   \                                 In  segment CODE, align 2, keep-with-next
   \                     ?Subroutine2:
   \   00000000   ....               RCALL   ?Subroutine11
   \                     ??CrossCallReturnLabel_20:
   \   00000002   9593               INC     R25
   \   00000004   9508               RET

   \                                 In  segment NEAR_ID, align 1, keep-with-next
   \                     `?<Initializer for ext_ucI2cDelay>`:
   \   00000000   05                 DC8 5

   \                                 In  segment NEAR_ID, align 1, keep-with-next
   \                     `?<Initializer for eep_usPvcomDly>`:
   \   00000000   0A                 DC8 10

   Maximum stack usage in bytes:

     Function                   CSTACK RSTACK
     --------                   ------ ------
     I2C_Read_Change_Add           11      4
       -> gpi2c_read               11      2
       -> gpi2c_read               11      2
       -> gpi2c_stop_condition     11      2
       -> delay_ms                 11      2
       -> gpi2c_start_condition    11      2
       -> gpi2c_write              11      2
       -> gpi2c_stop_condition     11      2
       -> gpi2c_write              11      2
       -> gpi2c_start_condition    11      2
       -> gpi2c_write              11      2
     I2C_Write_1Byte                3      2
       -> gpi2c_start_condition     3      2
       -> gpi2c_write               3      2
       -> gpi2c_stop_condition      3      2
       -> gpi2c_write               3      2
       -> gpi2c_write               3      2
       -> gpi2c_stop_condition      3      2
     I2C_Write_Change_Add           8      4
       -> gpi2c_write               8      2
       -> gpi2c_stop_condition      8      2
       -> delay_ms                  8      2
       -> gpi2c_start_condition     8      2
       -> gpi2c_write               8      2
       -> gpi2c_stop_condition      8      2
       -> gpi2c_write               8      2
     I2C_Write_Several              4      2
       -> gpi2c_start_condition     4      2
       -> gpi2c_write               4      2
       -> gpi2c_stop_condition      4      2
       -> gpi2c_write               4      2
       -> gpi2c_write               4      2
       -> gpi2c_stop_condition      4      2
     i2c_read                       6      2
       -> gpi2c_start_condition     6      2
       -> gpi2c_write               6      2
       -> gpi2c_stop_condition      6      2
       -> gpi2c_write               6      2
       -> gpi2c_write               6      2
       -> gpi2c_start_condition     6      2
       -> gpi2c_write               6      2
       -> gpi2c_read                6      2
       -> gpi2c_read                6      2
       -> gpi2c_stop_condition      6      2


   Segment part sizes:

     Function/Label                    Bytes
     --------------                    -----
     ext_usI2cData_2                      2
     ext_ucI2cDelay                       1
     eep_usPvcomDly                       1
     Tx_Lenth_Update                      2
     I2C_Write_1Byte                     42
     ?Subroutine4                         6
     ?Subroutine12                        6
     ?Subroutine1                         6
     ??Subroutine15_0                     6
     ?Subroutine10                        6
     ?Subroutine14                        6
     ?Subroutine13                        6
     I2C_Write_Several                   64
     ?Subroutine0                         4
     ?Subroutine8                        10
     i2c_read                            98
     ?Subroutine11                       12
     I2C_Write_Change_Add               110
     ?Subroutine9                         8
     I2C_Read_Change_Add                122
     ?Subroutine2                         6
     ?<Initializer for ext_ucI2cDelay>    1
     ?<Initializer for eep_usPvcomDly>    1
      Others                             14

 
 518 bytes in segment CODE
  14 bytes in segment INITTAB
   2 bytes in segment NEAR_I
   2 bytes in segment NEAR_ID
   4 bytes in segment NEAR_Z
 
 520 bytes of CODE memory (+ 14 bytes shared)
   6 bytes of DATA memory

Errors: none
Warnings: none
